target datalayout = "e-m:e-p270:32:32-p271:32:32-p272:64:64-i64:64-i128:128-f80:128-n8:16:32:64-S128"
target triple = "x86_64-pc-linux-gnu"

; Function Attrs: null_pointer_is_valid sspstrong uwtable
define internal zeroext i1 @dissect_xmcp_heur(ptr noundef %0, ptr noundef %1, ptr noundef %2, ptr noundef %3) #0 {
  %5 = alloca i1, align 1
  %6 = alloca ptr, align 8
  %7 = alloca ptr, align 8
  %8 = alloca ptr, align 8
  %9 = alloca ptr, align 8
  store ptr %0, ptr %6, align 8
  store ptr %1, ptr %7, align 8
  store ptr %2, ptr %8, align 8
  store ptr %3, ptr %9, align 8
  %10 = load ptr, ptr %6, align 8
  %11 = call i32 @tvb_captured_length(ptr noundef %10)
  %12 = icmp ult i32 %11, 20
  br i1 %12, label %13, label %14

13:                                               ; preds = %4
  store i1 false, ptr %5, align 1
  br label %31

14:                                               ; preds = %4
  %15 = load ptr, ptr %6, align 8
  %16 = call zeroext i16 @tvb_get_ntohs(ptr noundef %15, i32 noundef 0)
  %17 = zext i16 %16 to i32
  %18 = and i32 %17, 49152
  %19 = icmp ne i32 %18, 0
  br i1 %19, label %20, label %21

20:                                               ; preds = %14
  store i1 false, ptr %5, align 1
  br label %31

21:                                               ; preds = %14
  %22 = load ptr, ptr %6, align 8
  %23 = call i32 @tvb_get_ntohl(ptr noundef %22, i32 noundef 4)
  %24 = icmp ne i32 %23, 2136644551
  br i1 %24, label %25, label %26

25:                                               ; preds = %21
  store i1 false, ptr %5, align 1
  br label %31

26:                                               ; preds = %21
  %27 = load ptr, ptr %6, align 8
  %28 = load ptr, ptr %7, align 8
  %29 = load ptr, ptr %8, align 8
  %30 = load ptr, ptr %9, align 8
  call void @tcp_dissect_pdus(ptr noundef %27, ptr noundef %28, ptr noundef %29, i1 noundef zeroext true, i32 noundef 20, ptr noundef @get_xmcp_message_len, ptr noundef @dissect_xmcp_message, ptr noundef %30)
  store i1 true, ptr %5, align 1
  br label %31

31:                                               ; preds = %26, %25, %20, %13
  %32 = load i1, ptr %5, align 1
  ret i1 %32
}