; Function Attrs: null_pointer_is_valid sspstrong uwtable
define internal noundef zeroext i1 @dissect_xmcp_heur(ptr noundef %0, ptr noundef %1, ptr noundef %2, ptr noundef %3) #0 {
  %5 = tail call i32 @tvb_captured_length(ptr noundef %0)
  %6 = icmp ult i32 %5, 20
  br i1 %6, label %12, label %7

7:                                                ; preds = %4
  %8 = tail call zeroext i16 @tvb_get_ntohs(ptr noundef %0, i32 noundef 0)
  %.not = icmp ult i16 %8, 16384
  br i1 %.not, label %9, label %12

9:                                                ; preds = %7
  %10 = tail call i32 @tvb_get_ntohl(ptr noundef %0, i32 noundef 4)
  %.not8 = icmp eq i32 %10, 2136644551
  br i1 %.not8, label %11, label %12

11:                                               ; preds = %9
  tail call void @tcp_dissect_pdus(ptr noundef %0, ptr noundef %1, ptr noundef %2, i1 noundef zeroext true, i32 noundef 20, ptr noundef nonnull @get_xmcp_message_len, ptr noundef nonnull @dissect_xmcp_message, ptr noundef %3)
  br label %12

12:                                               ; preds = %9, %7, %4, %11
  %.0 = phi i1 [ true, %11 ], [ false, %4 ], [ false, %7 ], [ false, %9 ]
  ret i1 %.0
}